target datalayout = "e-m:e-p270:32:32-p271:32:32-p272:64:64-i64:64-i128:128-f80:128-n8:16:32:64-S128"
target triple = "x86_64-pc-linux-gnu"

%struct.AVFormatContext = type { ptr, ptr, ptr, ptr, ptr, i32, i32, ptr, i32, ptr, i32, ptr, ptr, i64, i64, i64, i32, i32, i32, i64, i64, ptr, i32, i32, ptr, i32, i32, i32, i32, ptr, i64, i32, i32, %struct.AVIOInterruptCB, i32, i32, i32, i32, i64, i32, i32, i32, i32, i32, i32, i32, i32, i32, i32, i32, i32, i64, i32, i32, i32, i32, i32, ptr, ptr, ptr, ptr, i32, ptr, ptr, ptr, ptr, i32, ptr, ptr, i64, ptr, ptr, ptr, i64 }
%struct.AVIOInterruptCB = type { ptr, ptr }
%struct.AVStream = type { ptr, i32, i32, ptr, ptr, %struct.AVRational, i64, i64, i64, i32, i32, %struct.AVRational, ptr, %struct.AVRational, %struct.AVPacket, i32, %struct.AVRational, i32 }
%struct.AVPacket = type { ptr, i64, i64, ptr, i32, i32, i32, ptr, i32, i64, i64, ptr, ptr, %struct.AVRational }
%struct.AVRational = type { i32, i32 }
%struct.AVCodecParameters = type { i32, i32, i32, ptr, i32, ptr, i32, i32, i64, i32, i32, i32, i32, i32, i32, %struct.AVRational, %struct.AVRational, i32, i32, i32, i32, i32, i32, i32, %struct.AVChannelLayout, i32, i32, i32, i32, i32, i32 }
%struct.AVChannelLayout = type { i32, i32, %union.anon, ptr }
%union.anon = type { i64 }

@.str = private unnamed_addr constant [5 x i8] c"iLBC\00", align 1
@ff_ilbc_dynamic_handler = constant { ptr, i32, i32, i32, i32, i32, [4 x i8], ptr, ptr, ptr, ptr, ptr } { ptr @.str, i32 1, i32 86075, i32 0, i32 0, i32 0, [4 x i8] zeroinitializer, ptr null, ptr @ilbc_parse_sdp_line, ptr null, ptr null, ptr null }, align 8
@.str.1 = private unnamed_addr constant [6 x i8] c"fmtp:\00", align 1
@.str.2 = private unnamed_addr constant [18 x i8] c"No iLBC mode set\0A\00", align 1
@.str.3 = private unnamed_addr constant [5 x i8] c"mode\00", align 1
@.str.4 = private unnamed_addr constant [26 x i8] c"Unsupported iLBC mode %d\0A\00", align 1

; Function Attrs: nounwind uwtable
define internal i32 @ilbc_parse_sdp_line(ptr noundef %0, i32 noundef %1, ptr noundef %2, ptr noundef %3) #0 {
  %5 = alloca i32, align 4
  %6 = alloca ptr, align 8
  %7 = alloca i32, align 4
  %8 = alloca ptr, align 8
  %9 = alloca ptr, align 8
  %10 = alloca ptr, align 8
  %11 = alloca ptr, align 8
  %12 = alloca i32, align 4
  %13 = alloca i32, align 4
  store ptr %0, ptr %6, align 8, !tbaa !4
  store i32 %1, ptr %7, align 4, !tbaa !9
  store ptr %2, ptr %8, align 8, !tbaa !11
  store ptr %3, ptr %9, align 8, !tbaa !13
  call void @llvm.lifetime.start.p0(i64 8, ptr %10) #6
  call void @llvm.lifetime.start.p0(i64 8, ptr %11) #6
  %14 = load i32, ptr %7, align 4, !tbaa !9
  %15 = icmp slt i32 %14, 0
  br i1 %15, label %16, label %17

16:                                               ; preds = %4
  store i32 0, ptr %5, align 4
  store i32 1, ptr %12, align 4
  br label %52

17:                                               ; preds = %4
  %18 = load ptr, ptr %6, align 8, !tbaa !4
  %19 = getelementptr inbounds nuw %struct.AVFormatContext, ptr %18, i32 0, i32 7
  %20 = load ptr, ptr %19, align 8, !tbaa !15
  %21 = load i32, ptr %7, align 4, !tbaa !9
  %22 = sext i32 %21 to i64
  %23 = getelementptr inbounds ptr, ptr %20, i64 %22
  %24 = load ptr, ptr %23, align 8, !tbaa !30
  store ptr %24, ptr %11, align 8, !tbaa !30
  %25 = load ptr, ptr %9, align 8, !tbaa !13
  %26 = call i32 @av_strstart(ptr noundef %25, ptr noundef @.str.1, ptr noundef %10)
  %27 = icmp ne i32 %26, 0
  br i1 %27, label %28, label %51

28:                                               ; preds = %17
  call void @llvm.lifetime.start.p0(i64 4, ptr %13) #6
  %29 = load ptr, ptr %6, align 8, !tbaa !4
  %30 = load ptr, ptr %11, align 8, !tbaa !30
  %31 = load ptr, ptr %8, align 8, !tbaa !11
  %32 = load ptr, ptr %10, align 8, !tbaa !13
  %33 = call i32 @ff_parse_fmtp(ptr noundef %29, ptr noundef %30, ptr noundef %31, ptr noundef %32, ptr noundef @ilbc_parse_fmtp)
  store i32 %33, ptr %13, align 4, !tbaa !9
  %34 = load i32, ptr %13, align 4, !tbaa !9
  %35 = icmp slt i32 %34, 0
  br i1 %35, label %36, label %38

36:                                               ; preds = %28
  %37 = load i32, ptr %13, align 4, !tbaa !9
  store i32 %37, ptr %5, align 4
  store i32 1, ptr %12, align 4
  br label %48

38:                                               ; preds = %28
  %39 = load ptr, ptr %11, align 8, !tbaa !30
  %40 = getelementptr inbounds nuw %struct.AVStream, ptr %39, i32 0, i32 3
  %41 = load ptr, ptr %40, align 8, !tbaa !32
  %42 = getelementptr inbounds nuw %struct.AVCodecParameters, ptr %41, i32 0, i32 26
  %43 = load i32, ptr %42, align 4, !tbaa !39
  %44 = icmp ne i32 %43, 0
  br i1 %44, label %47, label %45

45:                                               ; preds = %38
  %46 = load ptr, ptr %6, align 8, !tbaa !4
  call void (ptr, i32, ptr, ...) @av_log(ptr noundef %46, i32 noundef 16, ptr noundef @.str.2)
  store i32 -22, ptr %5, align 4
  store i32 1, ptr %12, align 4
  br label %48

47:                                               ; preds = %38
  store i32 0, ptr %12, align 4
  br label %48

48:                                               ; preds = %47, %45, %36
  call void @llvm.lifetime.end.p0(i64 4, ptr %13) #6
  %49 = load i32, ptr %12, align 4
  switch i32 %49, label %52 [
    i32 0, label %50
  ]

50:                                               ; preds = %48
  br label %51

51:                                               ; preds = %50, %17
  store i32 0, ptr %5, align 4
  store i32 1, ptr %12, align 4
  br label %52

52:                                               ; preds = %51, %48, %16
  call void @llvm.lifetime.end.p0(i64 8, ptr %11) #6
  call void @llvm.lifetime.end.p0(i64 8, ptr %10) #6
  %53 = load i32, ptr %5, align 4
  ret i32 %53
}

; Function Attrs: nocallback nofree nosync nounwind willreturn memory(argmem: readwrite)
declare void @llvm.lifetime.start.p0(i64 immarg, ptr captures(none)) #1

declare i32 @av_strstart(ptr noundef, ptr noundef, ptr noundef) #2

declare i32 @ff_parse_fmtp(ptr noundef, ptr noundef, ptr noundef, ptr noundef, ptr noundef) #2

; Function Attrs: nounwind uwtable
define internal i32 @ilbc_parse_fmtp(ptr noundef %0, ptr noundef %1, ptr noundef %2, ptr noundef %3, ptr noundef %4) #0 {
  %6 = alloca i32, align 4
  %7 = alloca ptr, align 8
  %8 = alloca ptr, align 8
  %9 = alloca ptr, align 8
  %10 = alloca ptr, align 8
  %11 = alloca ptr, align 8
  %12 = alloca i32, align 4
  %13 = alloca i32, align 4
  store ptr %0, ptr %7, align 8, !tbaa !4
  store ptr %1, ptr %8, align 8, !tbaa !30
  store ptr %2, ptr %9, align 8, !tbaa !11
  store ptr %3, ptr %10, align 8, !tbaa !13
  store ptr %4, ptr %11, align 8, !tbaa !13
  %14 = load ptr, ptr %10, align 8, !tbaa !13
  %15 = call i32 @strcmp(ptr noundef %14, ptr noundef @.str.3) #7
  %16 = icmp ne i32 %15, 0
  br i1 %16, label %38, label %17

17:                                               ; preds = %5
  call void @llvm.lifetime.start.p0(i64 4, ptr %12) #6
  %18 = load ptr, ptr %11, align 8, !tbaa !13
  %19 = call i32 @atoi(ptr noundef %18) #7
  store i32 %19, ptr %12, align 4, !tbaa !9
  %20 = load i32, ptr %12, align 4, !tbaa !9
  switch i32 %20, label %31 [
    i32 20, label %21
    i32 30, label %26
  ]

21:                                               ; preds = %17
  %22 = load ptr, ptr %8, align 8, !tbaa !30
  %23 = getelementptr inbounds nuw %struct.AVStream, ptr %22, i32 0, i32 3
  %24 = load ptr, ptr %23, align 8, !tbaa !32
  %25 = getelementptr inbounds nuw %struct.AVCodecParameters, ptr %24, i32 0, i32 26
  store i32 38, ptr %25, align 4, !tbaa !39
  br label %34

26:                                               ; preds = %17
  %27 = load ptr, ptr %8, align 8, !tbaa !30
  %28 = getelementptr inbounds nuw %struct.AVStream, ptr %27, i32 0, i32 3
  %29 = load ptr, ptr %28, align 8, !tbaa !32
  %30 = getelementptr inbounds nuw %struct.AVCodecParameters, ptr %29, i32 0, i32 26
  store i32 50, ptr %30, align 4, !tbaa !39
  br label %34

31:                                               ; preds = %17
  %32 = load ptr, ptr %7, align 8, !tbaa !4
  %33 = load i32, ptr %12, align 4, !tbaa !9
  call void (ptr, i32, ptr, ...) @av_log(ptr noundef %32, i32 noundef 16, ptr noundef @.str.4, i32 noundef %33)
  store i32 -22, ptr %6, align 4
  store i32 1, ptr %13, align 4
  br label %35

34:                                               ; preds = %26, %21
  store i32 0, ptr %13, align 4
  br label %35

35:                                               ; preds = %34, %31
  call void @llvm.lifetime.end.p0(i64 4, ptr %12) #6
  %36 = load i32, ptr %13, align 4
  switch i32 %36, label %41 [
    i32 0, label %37
    i32 1, label %39
  ]

37:                                               ; preds = %35
  br label %38

38:                                               ; preds = %37, %5
  store i32 0, ptr %6, align 4
  br label %39

39:                                               ; preds = %38, %35
  %40 = load i32, ptr %6, align 4
  ret i32 %40

41:                                               ; preds = %35
  unreachable
}

declare void @av_log(ptr noundef, i32 noundef, ptr noundef, ...) #2

; Function Attrs: nocallback nofree nosync nounwind willreturn memory(argmem: readwrite)
declare void @llvm.lifetime.end.p0(i64 immarg, ptr captures(none)) #1

; Function Attrs: nounwind willreturn memory(read)
declare i32 @strcmp(ptr noundef, ptr noundef) #3

; Function Attrs: inlinehint nounwind willreturn memory(read) uwtable
define available_externally i32 @atoi(ptr noundef nonnull %0) #4 {
  %2 = alloca ptr, align 8
  store ptr %0, ptr %2, align 8, !tbaa !13
  %3 = load ptr, ptr %2, align 8, !tbaa !13
  %4 = call i64 @strtol(ptr noundef %3, ptr noundef null, i32 noundef 10) #6
  %5 = trunc i64 %4 to i32
  ret i32 %5
}

; Function Attrs: nounwind
declare i64 @strtol(ptr noundef, ptr noundef, i32 noundef) #5


!llvm.module.flags = !{!0, !1, !2, !3}

!0 = !{i32 1, !"wchar_size", i32 4}
!1 = !{i32 8, !"PIC Level", i32 2}
!2 = !{i32 7, !"uwtable", i32 2}
!3 = !{i32 1, !"override-stack-alignment", i32 16}
!4 = !{!5, !5, i64 0}
!5 = !{!"p1 _ZTS15AVFormatContext", !6, i64 0}
!6 = !{!"any pointer", !7, i64 0}
!7 = !{!"omnipotent char", !8, i64 0}
!8 = !{!"Simple C/C++ TBAA"}
!9 = !{!10, !10, i64 0}
!10 = !{!"int", !7, i64 0}
!11 = !{!12, !12, i64 0}
!12 = !{!"p1 _ZTS14PayloadContext", !6, i64 0}
!13 = !{!14, !14, i64 0}
!14 = !{!"p1 omnipotent char", !6, i64 0}
!15 = !{!16, !21, i64 48}
!16 = !{!"AVFormatContext", !17, i64 0, !18, i64 8, !19, i64 16, !6, i64 24, !20, i64 32, !10, i64 40, !10, i64 44, !21, i64 48, !10, i64 56, !23, i64 64, !10, i64 72, !24, i64 80, !14, i64 88, !25, i64 96, !25, i64 104, !25, i64 112, !10, i64 120, !10, i64 124, !10, i64 128, !25, i64 136, !25, i64 144, !14, i64 152, !10, i64 160, !10, i64 164, !26, i64 168, !10, i64 176, !10, i64 180, !10, i64 184, !10, i64 188, !27, i64 192, !25, i64 200, !10, i64 208, !10, i64 212, !28, i64 216, !10, i64 232, !10, i64 236, !10, i64 240, !10, i64 244, !25, i64 248, !10, i64 256, !10, i64 260, !10, i64 264, !10, i64 268, !10, i64 272, !10, i64 276, !10, i64 280, !10, i64 284, !10, i64 288, !10, i64 292, !10, i64 296, !10, i64 300, !25, i64 304, !10, i64 312, !10, i64 316, !10, i64 320, !10, i64 324, !10, i64 328, !14, i64 336, !14, i64 344, !14, i64 352, !14, i64 360, !10, i64 368, !29, i64 376, !29, i64 384, !29, i64 392, !29, i64 400, !10, i64 408, !6, i64 416, !6, i64 424, !25, i64 432, !14, i64 440, !6, i64 448, !6, i64 456, !25, i64 464}
!17 = !{!"p1 _ZTS7AVClass", !6, i64 0}
!18 = !{!"p1 _ZTS13AVInputFormat", !6, i64 0}
!19 = !{!"p1 _ZTS14AVOutputFormat", !6, i64 0}
!20 = !{!"p1 _ZTS11AVIOContext", !6, i64 0}
!21 = !{!"p2 _ZTS8AVStream", !22, i64 0}
!22 = !{!"any p2 pointer", !6, i64 0}
!23 = !{!"p2 _ZTS13AVStreamGroup", !22, i64 0}
!24 = !{!"p2 _ZTS9AVChapter", !22, i64 0}
!25 = !{!"long", !7, i64 0}
!26 = !{!"p2 _ZTS9AVProgram", !22, i64 0}
!27 = !{!"p1 _ZTS12AVDictionary", !6, i64 0}
!28 = !{!"AVIOInterruptCB", !6, i64 0, !6, i64 8}
!29 = !{!"p1 _ZTS7AVCodec", !6, i64 0}
!30 = !{!31, !31, i64 0}
!31 = !{!"p1 _ZTS8AVStream", !6, i64 0}
!32 = !{!33, !34, i64 16}
!33 = !{!"AVStream", !17, i64 0, !10, i64 8, !10, i64 12, !34, i64 16, !6, i64 24, !35, i64 32, !25, i64 40, !25, i64 48, !25, i64 56, !10, i64 64, !10, i64 68, !35, i64 72, !27, i64 80, !35, i64 88, !36, i64 96, !10, i64 200, !35, i64 204, !10, i64 212}
!34 = !{!"p1 _ZTS17AVCodecParameters", !6, i64 0}
!35 = !{!"AVRational", !10, i64 0, !10, i64 4}
!36 = !{!"AVPacket", !37, i64 0, !25, i64 8, !25, i64 16, !14, i64 24, !10, i64 32, !10, i64 36, !10, i64 40, !38, i64 48, !10, i64 56, !25, i64 64, !25, i64 72, !6, i64 80, !37, i64 88, !35, i64 96}
!37 = !{!"p1 _ZTS11AVBufferRef", !6, i64 0}
!38 = !{!"p1 _ZTS16AVPacketSideData", !6, i64 0}
!39 = !{!40, !10, i64 156}
!40 = !{!"AVCodecParameters", !10, i64 0, !10, i64 4, !10, i64 8, !14, i64 16, !10, i64 24, !38, i64 32, !10, i64 40, !10, i64 44, !25, i64 48, !10, i64 56, !10, i64 60, !10, i64 64, !10, i64 68, !10, i64 72, !10, i64 76, !35, i64 80, !35, i64 88, !10, i64 96, !10, i64 100, !10, i64 104, !10, i64 108, !10, i64 112, !10, i64 116, !10, i64 120, !41, i64 128, !10, i64 152, !10, i64 156, !10, i64 160, !10, i64 164, !10, i64 168, !10, i64 172}
!41 = !{!"AVChannelLayout", !10, i64 0, !10, i64 4, !7, i64 8, !6, i64 16}
