; ModuleID = 'bench/ffmpeg/original/rtpdec_ilbc.ll'
source_filename = "bench/ffmpeg/original/rtpdec_ilbc.ll"
target datalayout = "e-m:e-p270:32:32-p271:32:32-p272:64:64-i64:64-i128:128-f80:128-n8:16:32:64-S128"
target triple = "x86_64-pc-linux-gnu"

@.str = private unnamed_addr constant [5 x i8] c"iLBC\00", align 1
@ff_ilbc_dynamic_handler = local_unnamed_addr constant { ptr, i32, i32, i32, i32, i32, [4 x i8], ptr, ptr, ptr, ptr, ptr } { ptr @.str, i32 1, i32 86075, i32 0, i32 0, i32 0, [4 x i8] zeroinitializer, ptr null, ptr @ilbc_parse_sdp_line, ptr null, ptr null, ptr null }, align 8
@.str.1 = private unnamed_addr constant [6 x i8] c"fmtp:\00", align 1
@.str.2 = private unnamed_addr constant [18 x i8] c"No iLBC mode set\0A\00", align 1
@.str.3 = private unnamed_addr constant [5 x i8] c"mode\00", align 1
@.str.4 = private unnamed_addr constant [26 x i8] c"Unsupported iLBC mode %d\0A\00", align 1

; Function Attrs: nounwind uwtable
define internal range(i32 -2147483648, 1) i32 @ilbc_parse_sdp_line(ptr noundef %0, i32 noundef %1, ptr noundef %2, ptr noundef %3) #0 {
  %5 = alloca ptr, align 8
  call void @llvm.lifetime.start.p0(i64 8, ptr nonnull %5) #5
  %6 = icmp slt i32 %1, 0
  br i1 %6, label %.thread, label %7

7:                                                ; preds = %4
  %8 = getelementptr inbounds nuw i8, ptr %0, i64 48
  %9 = load ptr, ptr %8, align 8, !tbaa !4
  %10 = zext nneg i32 %1 to i64
  %11 = getelementptr inbounds nuw ptr, ptr %9, i64 %10
  %12 = load ptr, ptr %11, align 8, !tbaa !24
  %13 = call i32 @av_strstart(ptr noundef %3, ptr noundef nonnull @.str.1, ptr noundef nonnull %5) #5
  %.not = icmp eq i32 %13, 0
  br i1 %.not, label %.thread, label %14

14:                                               ; preds = %7
  %15 = load ptr, ptr %5, align 8, !tbaa !26
  %16 = call i32 @ff_parse_fmtp(ptr noundef nonnull %0, ptr noundef %12, ptr noundef %2, ptr noundef %15, ptr noundef nonnull @ilbc_parse_fmtp) #5
  %17 = icmp slt i32 %16, 0
  br i1 %17, label %.thread, label %18

18:                                               ; preds = %14
  %19 = getelementptr inbounds nuw i8, ptr %12, i64 16
  %20 = load ptr, ptr %19, align 8, !tbaa !27
  %21 = getelementptr inbounds nuw i8, ptr %20, i64 156
  %22 = load i32, ptr %21, align 4, !tbaa !34
  %.not15 = icmp eq i32 %22, 0
  br i1 %.not15, label %23, label %.thread

23:                                               ; preds = %18
  call void (ptr, i32, ptr, ...) @av_log(ptr noundef nonnull %0, i32 noundef 16, ptr noundef nonnull @.str.2) #5
  br label %.thread

.thread:                                          ; preds = %14, %23, %7, %18, %4
  %.0 = phi i32 [ 0, %4 ], [ 0, %18 ], [ 0, %7 ], [ %16, %14 ], [ -22, %23 ]
  call void @llvm.lifetime.end.p0(i64 8, ptr nonnull %5) #5
  ret i32 %.0
}

; Function Attrs: mustprogress nocallback nofree nosync nounwind willreturn memory(argmem: readwrite)
declare void @llvm.lifetime.start.p0(i64 immarg, ptr captures(none)) #1

declare i32 @av_strstart(ptr noundef, ptr noundef, ptr noundef) local_unnamed_addr #2

declare i32 @ff_parse_fmtp(ptr noundef, ptr noundef, ptr noundef, ptr noundef, ptr noundef) local_unnamed_addr #2

; Function Attrs: nounwind uwtable
define internal range(i32 -22, 1) i32 @ilbc_parse_fmtp(ptr noundef %0, ptr noundef readonly captures(none) %1, ptr readnone captures(none) %2, ptr noundef readonly captures(none) %3, ptr noundef readonly captures(none) %4) #0 {
  %6 = tail call i32 @strcmp(ptr noundef nonnull dereferenceable(1) %3, ptr noundef nonnull dereferenceable(5) @.str.3) #6
  %.not = icmp eq i32 %6, 0
  br i1 %.not, label %7, label %.thread

7:                                                ; preds = %5
  %8 = tail call i64 @strtol(ptr noundef nonnull captures(none) %4, ptr noundef null, i32 noundef 10) #5
  %9 = trunc i64 %8 to i32
  switch i32 %9, label %18 [
    i32 20, label %10
    i32 30, label %14
  ]

10:                                               ; preds = %7
  %11 = getelementptr inbounds nuw i8, ptr %1, i64 16
  %12 = load ptr, ptr %11, align 8, !tbaa !27
  %13 = getelementptr inbounds nuw i8, ptr %12, i64 156
  store i32 38, ptr %13, align 4, !tbaa !34
  br label %.thread

14:                                               ; preds = %7
  %15 = getelementptr inbounds nuw i8, ptr %1, i64 16
  %16 = load ptr, ptr %15, align 8, !tbaa !27
  %17 = getelementptr inbounds nuw i8, ptr %16, i64 156
  store i32 50, ptr %17, align 4, !tbaa !34
  br label %.thread

18:                                               ; preds = %7
  tail call void (ptr, i32, ptr, ...) @av_log(ptr noundef %0, i32 noundef 16, ptr noundef nonnull @.str.4, i32 noundef %9) #5
  br label %.thread

.thread:                                          ; preds = %10, %14, %5, %18
  %.1 = phi i32 [ -22, %18 ], [ 0, %5 ], [ 0, %14 ], [ 0, %10 ]
  ret i32 %.1
}

declare void @av_log(ptr noundef, i32 noundef, ptr noundef, ...) local_unnamed_addr #2

; Function Attrs: mustprogress nocallback nofree nosync nounwind willreturn memory(argmem: readwrite)
declare void @llvm.lifetime.end.p0(i64 immarg, ptr captures(none)) #1

; Function Attrs: mustprogress nocallback nofree nounwind willreturn memory(argmem: read)
declare i32 @strcmp(ptr noundef captures(none), ptr noundef captures(none)) local_unnamed_addr #3

; Function Attrs: mustprogress nocallback nofree nounwind willreturn
declare i64 @strtol(ptr noundef readonly, ptr noundef captures(none), i32 noundef) local_unnamed_addr #4


!llvm.module.flags = !{!0, !1, !2, !3}

!0 = !{i32 1, !"wchar_size", i32 4}
!1 = !{i32 8, !"PIC Level", i32 2}
!2 = !{i32 7, !"uwtable", i32 2}
!3 = !{i32 1, !"override-stack-alignment", i32 16}
!4 = !{!5, !14, i64 48}
!5 = !{!"AVFormatContext", !6, i64 0, !10, i64 8, !11, i64 16, !7, i64 24, !12, i64 32, !13, i64 40, !13, i64 44, !14, i64 48, !13, i64 56, !16, i64 64, !13, i64 72, !17, i64 80, !18, i64 88, !19, i64 96, !19, i64 104, !19, i64 112, !13, i64 120, !13, i64 124, !13, i64 128, !19, i64 136, !19, i64 144, !18, i64 152, !13, i64 160, !13, i64 164, !20, i64 168, !13, i64 176, !13, i64 180, !13, i64 184, !13, i64 188, !21, i64 192, !19, i64 200, !13, i64 208, !13, i64 212, !22, i64 216, !13, i64 232, !13, i64 236, !13, i64 240, !13, i64 244, !19, i64 248, !13, i64 256, !13, i64 260, !13, i64 264, !13, i64 268, !13, i64 272, !13, i64 276, !13, i64 280, !13, i64 284, !13, i64 288, !13, i64 292, !13, i64 296, !13, i64 300, !19, i64 304, !13, i64 312, !13, i64 316, !13, i64 320, !13, i64 324, !13, i64 328, !18, i64 336, !18, i64 344, !18, i64 352, !18, i64 360, !13, i64 368, !23, i64 376, !23, i64 384, !23, i64 392, !23, i64 400, !13, i64 408, !7, i64 416, !7, i64 424, !19, i64 432, !18, i64 440, !7, i64 448, !7, i64 456, !19, i64 464}
!6 = !{!"p1 _ZTS7AVClass", !7, i64 0}
!7 = !{!"any pointer", !8, i64 0}
!8 = !{!"omnipotent char", !9, i64 0}
!9 = !{!"Simple C/C++ TBAA"}
!10 = !{!"p1 _ZTS13AVInputFormat", !7, i64 0}
!11 = !{!"p1 _ZTS14AVOutputFormat", !7, i64 0}
!12 = !{!"p1 _ZTS11AVIOContext", !7, i64 0}
!13 = !{!"int", !8, i64 0}
!14 = !{!"p2 _ZTS8AVStream", !15, i64 0}
!15 = !{!"any p2 pointer", !7, i64 0}
!16 = !{!"p2 _ZTS13AVStreamGroup", !15, i64 0}
!17 = !{!"p2 _ZTS9AVChapter", !15, i64 0}
!18 = !{!"p1 omnipotent char", !7, i64 0}
!19 = !{!"long", !8, i64 0}
!20 = !{!"p2 _ZTS9AVProgram", !15, i64 0}
!21 = !{!"p1 _ZTS12AVDictionary", !7, i64 0}
!22 = !{!"AVIOInterruptCB", !7, i64 0, !7, i64 8}
!23 = !{!"p1 _ZTS7AVCodec", !7, i64 0}
!24 = !{!25, !25, i64 0}
!25 = !{!"p1 _ZTS8AVStream", !7, i64 0}
!26 = !{!18, !18, i64 0}
!27 = !{!28, !29, i64 16}
!28 = !{!"AVStream", !6, i64 0, !13, i64 8, !13, i64 12, !29, i64 16, !7, i64 24, !30, i64 32, !19, i64 40, !19, i64 48, !19, i64 56, !13, i64 64, !13, i64 68, !30, i64 72, !21, i64 80, !30, i64 88, !31, i64 96, !13, i64 200, !30, i64 204, !13, i64 212}
!29 = !{!"p1 _ZTS17AVCodecParameters", !7, i64 0}
!30 = !{!"AVRational", !13, i64 0, !13, i64 4}
!31 = !{!"AVPacket", !32, i64 0, !19, i64 8, !19, i64 16, !18, i64 24, !13, i64 32, !13, i64 36, !13, i64 40, !33, i64 48, !13, i64 56, !19, i64 64, !19, i64 72, !7, i64 80, !32, i64 88, !30, i64 96}
!32 = !{!"p1 _ZTS11AVBufferRef", !7, i64 0}
!33 = !{!"p1 _ZTS16AVPacketSideData", !7, i64 0}
!34 = !{!35, !13, i64 156}
!35 = !{!"AVCodecParameters", !13, i64 0, !13, i64 4, !13, i64 8, !18, i64 16, !13, i64 24, !33, i64 32, !13, i64 40, !13, i64 44, !19, i64 48, !13, i64 56, !13, i64 60, !13, i64 64, !13, i64 68, !13, i64 72, !13, i64 76, !30, i64 80, !30, i64 88, !13, i64 96, !13, i64 100, !13, i64 104, !13, i64 108, !13, i64 112, !13, i64 116, !13, i64 120, !36, i64 128, !13, i64 152, !13, i64 156, !13, i64 160, !13, i64 164, !13, i64 168, !13, i64 172}
!36 = !{!"AVChannelLayout", !13, i64 0, !13, i64 4, !8, i64 8, !7, i64 16}
